; ModuleID = '54/962.c'
source_filename = "54/962.c"
target datalayout = "e-m:e-p270:32:32-p271:32:32-p272:64:64-i64:64-f80:128-n8:16:32:64-S128"
target triple = "x86_64-pc-linux-gnu"

@.str = private unnamed_addr constant [5 x i8] c"%d%d\00", align 1
@.str.1 = private unnamed_addr constant [3 x i8] c"%d\00", align 1

; Function Attrs: noinline nounwind uwtable
define dso_local i32 @main() #0 {
  %1 = alloca i32, align 4
  %2 = alloca i32, align 4
  %3 = alloca i32, align 4
  %4 = alloca i32, align 4
  %5 = alloca i32, align 4
  %6 = alloca i32, align 4
  %7 = alloca i32, align 4
  store i32 0, i32* %1, align 4
  store i32 0, i32* %7, align 4
  %8 = call i32 (i8*, ...) @__isoc99_scanf(i8* getelementptr inbounds ([5 x i8], [5 x i8]* @.str, i64 0, i64 0), i32* %2, i32* %3)
  %9 = load i32, i32* %3, align 4
  store i32 %9, i32* %6, align 4
  br label %10

10:                                               ; preds = %54, %0
  store i32 0, i32* %7, align 4
  %11 = load i32, i32* %6, align 4
  %12 = load i32, i32* %2, align 4
  %13 = mul nsw i32 %11, %12
  %14 = load i32, i32* %3, align 4
  %15 = add nsw i32 %13, %14
  store i32 %15, i32* %5, align 4
  %16 = load i32, i32* %5, align 4
  %17 = load i32, i32* %2, align 4
  %18 = srem i32 %16, %17
  %19 = load i32, i32* %3, align 4
  %20 = icmp eq i32 %18, %19
  br i1 %20, label %21, label %24

21:                                               ; preds = %10
  %22 = load i32, i32* %7, align 4
  %23 = add nsw i32 %22, 1
  store i32 %23, i32* %7, align 4
  br label %24

24:                                               ; preds = %21, %10
  store i32 2, i32* %4, align 4
  br label %25

25:                                               ; preds = %43, %24
  %26 = load i32, i32* %4, align 4
  %27 = load i32, i32* %2, align 4
  %28 = icmp sle i32 %26, %27
  br i1 %28, label %29, label %46

29:                                               ; preds = %25
  %30 = load i32, i32* %5, align 4
  %31 = load i32, i32* %2, align 4
  %32 = load i32, i32* %3, align 4
  %33 = call i32 @calc(i32 %30, i32 %31, i32 %32)
  store i32 %33, i32* %5, align 4
  %34 = load i32, i32* %5, align 4
  %35 = load i32, i32* %2, align 4
  %36 = srem i32 %34, %35
  %37 = load i32, i32* %3, align 4
  %38 = icmp eq i32 %36, %37
  br i1 %38, label %39, label %42

39:                                               ; preds = %29
  %40 = load i32, i32* %7, align 4
  %41 = add nsw i32 %40, 1
  store i32 %41, i32* %7, align 4
  br label %42

42:                                               ; preds = %39, %29
  br label %43

43:                                               ; preds = %42
  %44 = load i32, i32* %4, align 4
  %45 = add nsw i32 %44, 1
  store i32 %45, i32* %4, align 4
  br label %25

46:                                               ; preds = %25
  %47 = load i32, i32* %7, align 4
  %48 = load i32, i32* %2, align 4
  %49 = icmp eq i32 %47, %48
  br i1 %49, label %50, label %53

50:                                               ; preds = %46
  %51 = load i32, i32* %5, align 4
  %52 = call i32 (i8*, ...) @printf(i8* getelementptr inbounds ([3 x i8], [3 x i8]* @.str.1, i64 0, i64 0), i32 %51)
  br label %57

53:                                               ; preds = %46
  br label %54

54:                                               ; preds = %53
  %55 = load i32, i32* %6, align 4
  %56 = add nsw i32 %55, 1
  store i32 %56, i32* %6, align 4
  br label %10

57:                                               ; preds = %50
  ret i32 0
}

declare dso_local i32 @__isoc99_scanf(i8*, ...) #1

; Function Attrs: noinline nounwind uwtable
define dso_local i32 @calc(i32 %0, i32 %1, i32 %2) #0 {
  %4 = alloca i32, align 4
  %5 = alloca i32, align 4
  %6 = alloca i32, align 4
  store i32 %0, i32* %4, align 4
  store i32 %1, i32* %5, align 4
  store i32 %2, i32* %6, align 4
  %7 = load i32, i32* %4, align 4
  %8 = load i32, i32* %5, align 4
  %9 = mul nsw i32 %7, %8
  %10 = load i32, i32* %5, align 4
  %11 = sub nsw i32 %10, 1
  %12 = sdiv i32 %9, %11
  %13 = load i32, i32* %6, align 4
  %14 = add nsw i32 %12, %13
  ret i32 %14
}

declare dso_local i32 @printf(i8*, ...) #1


!llvm.module.flags = !{!0}
!llvm.ident = !{!1}

!0 = !{i32 1, !"wchar_size", i32 4}
!1 = !{!"clang version 10.0.0-4ubuntu1 "}
